target datalayout = "e-m:e-p270:32:32-p271:32:32-p272:64:64-i64:64-i128:128-f80:128-n8:16:32:64-S128"
target triple = "x86_64-pc-linux-gnu"

%struct.FT_Vector_ = type { i64, i64 }
%struct.FT_StrokerRec_ = type { i64, i64, %struct.FT_Vector_, i64, i8, i8, i64, %struct.FT_Vector_, i64, i8, i32, i32, i32, i64, i64, [2 x %struct.FT_StrokeBorderRec_], ptr }
%struct.FT_StrokeBorderRec_ = type { i32, i32, ptr, ptr, i8, i32, ptr, i8 }

; Function Attrs: nounwind uwtable
define internal i32 @ft_stroker_cap(ptr noundef %0, i64 noundef %1, i32 noundef %2) #0 {
  %4 = alloca ptr, align 8
  %5 = alloca i64, align 8
  %6 = alloca i32, align 4
  %7 = alloca i32, align 4
  %8 = alloca %struct.FT_Vector_, align 8
  %9 = alloca %struct.FT_Vector_, align 8
  %10 = alloca i64, align 8
  %11 = alloca ptr, align 8
  store ptr %0, ptr %4, align 8
  store i64 %1, ptr %5, align 8
  store i32 %2, ptr %6, align 4
  store i32 0, ptr %7, align 4
  %12 = load ptr, ptr %4, align 8
  %13 = getelementptr inbounds %struct.FT_StrokerRec_, ptr %12, i32 0, i32 10
  %14 = load i32, ptr %13, align 4
  %15 = icmp eq i32 %14, 1
  br i1 %15, label %16, label %27

16:                                               ; preds = %3
  %17 = load i64, ptr %5, align 8
  %18 = load ptr, ptr %4, align 8
  %19 = getelementptr inbounds %struct.FT_StrokerRec_, ptr %18, i32 0, i32 0
  store i64 %17, ptr %19, align 8
  %20 = load i64, ptr %5, align 8
  %21 = add nsw i64 %20, 11796480
  %22 = load ptr, ptr %4, align 8
  %23 = getelementptr inbounds %struct.FT_StrokerRec_, ptr %22, i32 0, i32 1
  store i64 %21, ptr %23, align 8
  %24 = load ptr, ptr %4, align 8
  %25 = load i32, ptr %6, align 4
  %26 = call i32 @ft_stroker_arcto(ptr noundef %24, i32 noundef %25)
  store i32 %26, ptr %7, align 4
  br label %130

27:                                               ; preds = %3
  %28 = load ptr, ptr %4, align 8
  %29 = getelementptr inbounds %struct.FT_StrokerRec_, ptr %28, i32 0, i32 14
  %30 = load i64, ptr %29, align 8
  store i64 %30, ptr %10, align 8
  %31 = load ptr, ptr %4, align 8
  %32 = getelementptr inbounds %struct.FT_StrokerRec_, ptr %31, i32 0, i32 15
  %33 = getelementptr inbounds [2 x %struct.FT_StrokeBorderRec_], ptr %32, i64 0, i64 0
  %34 = load i32, ptr %6, align 4
  %35 = sext i32 %34 to i64
  %36 = getelementptr inbounds %struct.FT_StrokeBorderRec_, ptr %33, i64 %35
  store ptr %36, ptr %11, align 8
  %37 = load i64, ptr %10, align 8
  %38 = load i64, ptr %5, align 8
  call void @FT_Vector_From_Polar(ptr noundef %8, i64 noundef %37, i64 noundef %38)
  %39 = load i32, ptr %6, align 4
  %40 = icmp ne i32 %39, 0
  br i1 %40, label %41, label %44

41:                                               ; preds = %27
  %42 = getelementptr inbounds %struct.FT_Vector_, ptr %8, i32 0, i32 1
  %43 = load i64, ptr %42, align 8
  br label %48

44:                                               ; preds = %27
  %45 = getelementptr inbounds %struct.FT_Vector_, ptr %8, i32 0, i32 1
  %46 = load i64, ptr %45, align 8
  %47 = sub nsw i64 0, %46
  br label %48

48:                                               ; preds = %44, %41
  %49 = phi i64 [ %43, %41 ], [ %47, %44 ]
  %50 = getelementptr inbounds %struct.FT_Vector_, ptr %9, i32 0, i32 0
  store i64 %49, ptr %50, align 8
  %51 = load i32, ptr %6, align 4
  %52 = icmp ne i32 %51, 0
  br i1 %52, label %53, label %57

53:                                               ; preds = %48
  %54 = getelementptr inbounds %struct.FT_Vector_, ptr %8, i32 0, i32 0
  %55 = load i64, ptr %54, align 8
  %56 = sub nsw i64 0, %55
  br label %60

57:                                               ; preds = %48
  %58 = getelementptr inbounds %struct.FT_Vector_, ptr %8, i32 0, i32 0
  %59 = load i64, ptr %58, align 8
  br label %60

60:                                               ; preds = %57, %53
  %61 = phi i64 [ %56, %53 ], [ %59, %57 ]
  %62 = getelementptr inbounds %struct.FT_Vector_, ptr %9, i32 0, i32 1
  store i64 %61, ptr %62, align 8
  %63 = load ptr, ptr %4, align 8
  %64 = getelementptr inbounds %struct.FT_StrokerRec_, ptr %63, i32 0, i32 10
  %65 = load i32, ptr %64, align 4
  %66 = icmp eq i32 %65, 2
  br i1 %66, label %67, label %82

67:                                               ; preds = %60
  %68 = load ptr, ptr %4, align 8
  %69 = getelementptr inbounds %struct.FT_StrokerRec_, ptr %68, i32 0, i32 2
  %70 = getelementptr inbounds %struct.FT_Vector_, ptr %69, i32 0, i32 0
  %71 = load i64, ptr %70, align 8
  %72 = getelementptr inbounds %struct.FT_Vector_, ptr %8, i32 0, i32 0
  %73 = load i64, ptr %72, align 8
  %74 = add nsw i64 %73, %71
  store i64 %74, ptr %72, align 8
  %75 = load ptr, ptr %4, align 8
  %76 = getelementptr inbounds %struct.FT_StrokerRec_, ptr %75, i32 0, i32 2
  %77 = getelementptr inbounds %struct.FT_Vector_, ptr %76, i32 0, i32 1
  %78 = load i64, ptr %77, align 8
  %79 = getelementptr inbounds %struct.FT_Vector_, ptr %8, i32 0, i32 1
  %80 = load i64, ptr %79, align 8
  %81 = add nsw i64 %80, %78
  store i64 %81, ptr %79, align 8
  br label %93

82:                                               ; preds = %60
  %83 = load ptr, ptr %4, align 8
  %84 = getelementptr inbounds %struct.FT_StrokerRec_, ptr %83, i32 0, i32 2
  %85 = getelementptr inbounds %struct.FT_Vector_, ptr %84, i32 0, i32 0
  %86 = load i64, ptr %85, align 8
  %87 = getelementptr inbounds %struct.FT_Vector_, ptr %8, i32 0, i32 0
  store i64 %86, ptr %87, align 8
  %88 = load ptr, ptr %4, align 8
  %89 = getelementptr inbounds %struct.FT_StrokerRec_, ptr %88, i32 0, i32 2
  %90 = getelementptr inbounds %struct.FT_Vector_, ptr %89, i32 0, i32 1
  %91 = load i64, ptr %90, align 8
  %92 = getelementptr inbounds %struct.FT_Vector_, ptr %8, i32 0, i32 1
  store i64 %91, ptr %92, align 8
  br label %93

93:                                               ; preds = %82, %67
  %94 = getelementptr inbounds %struct.FT_Vector_, ptr %8, i32 0, i32 0
  %95 = load i64, ptr %94, align 8
  %96 = getelementptr inbounds %struct.FT_Vector_, ptr %9, i32 0, i32 0
  %97 = load i64, ptr %96, align 8
  %98 = add nsw i64 %97, %95
  store i64 %98, ptr %96, align 8
  %99 = getelementptr inbounds %struct.FT_Vector_, ptr %8, i32 0, i32 1
  %100 = load i64, ptr %99, align 8
  %101 = getelementptr inbounds %struct.FT_Vector_, ptr %9, i32 0, i32 1
  %102 = load i64, ptr %101, align 8
  %103 = add nsw i64 %102, %100
  store i64 %103, ptr %101, align 8
  %104 = load ptr, ptr %11, align 8
  %105 = call i32 @ft_stroke_border_lineto(ptr noundef %104, ptr noundef %9, i8 noundef zeroext 0)
  store i32 %105, ptr %7, align 4
  %106 = load i32, ptr %7, align 4
  %107 = icmp ne i32 %106, 0
  br i1 %107, label %108, label %109

108:                                              ; preds = %93
  br label %131

109:                                              ; preds = %93
  %110 = getelementptr inbounds %struct.FT_Vector_, ptr %8, i32 0, i32 0
  %111 = load i64, ptr %110, align 8
  %112 = getelementptr inbounds %struct.FT_Vector_, ptr %9, i32 0, i32 0
  %113 = load i64, ptr %112, align 8
  %114 = sub nsw i64 %111, %113
  %115 = getelementptr inbounds %struct.FT_Vector_, ptr %8, i32 0, i32 0
  %116 = load i64, ptr %115, align 8
  %117 = add nsw i64 %114, %116
  %118 = getelementptr inbounds %struct.FT_Vector_, ptr %9, i32 0, i32 0
  store i64 %117, ptr %118, align 8
  %119 = getelementptr inbounds %struct.FT_Vector_, ptr %8, i32 0, i32 1
  %120 = load i64, ptr %119, align 8
  %121 = getelementptr inbounds %struct.FT_Vector_, ptr %9, i32 0, i32 1
  %122 = load i64, ptr %121, align 8
  %123 = sub nsw i64 %120, %122
  %124 = getelementptr inbounds %struct.FT_Vector_, ptr %8, i32 0, i32 1
  %125 = load i64, ptr %124, align 8
  %126 = add nsw i64 %123, %125
  %127 = getelementptr inbounds %struct.FT_Vector_, ptr %9, i32 0, i32 1
  store i64 %126, ptr %127, align 8
  %128 = load ptr, ptr %11, align 8
  %129 = call i32 @ft_stroke_border_lineto(ptr noundef %128, ptr noundef %9, i8 noundef zeroext 0)
  store i32 %129, ptr %7, align 4
  br label %130

130:                                              ; preds = %109, %16
  br label %131

131:                                              ; preds = %130, %108
  %132 = load i32, ptr %7, align 4
  ret i32 %132
}