; Function Attrs: nounwind uwtable
define internal fastcc i32 @ft_stroker_cap(ptr noundef nonnull captures(none) %0, i64 noundef %1) unnamed_addr #0 {
  %3 = alloca %struct.FT_Vector_, align 8
  %4 = alloca %struct.FT_Vector_, align 8
  %5 = getelementptr inbounds nuw i8, ptr %0, i64 84
  %6 = load i32, ptr %5, align 4
  %7 = icmp eq i32 %6, 1
  br i1 %7, label %8, label %12

8:                                                ; preds = %2
  store i64 %1, ptr %0, align 8
  %9 = add nsw i64 %1, 11796480
  %10 = getelementptr inbounds nuw i8, ptr %0, i64 8
  store i64 %9, ptr %10, align 8
  %11 = tail call fastcc i32 @ft_stroker_arcto(ptr noundef %0, i32 noundef 0)
  br label %42

12:                                               ; preds = %2
  %13 = getelementptr inbounds nuw i8, ptr %0, i64 104
  %14 = load i64, ptr %13, align 8
  %15 = getelementptr inbounds nuw i8, ptr %0, i64 112
  call void @FT_Vector_From_Polar(ptr noundef nonnull %3, i64 noundef %14, i64 noundef %1) #11
  %16 = getelementptr inbounds nuw i8, ptr %3, i64 8
  %17 = load i64, ptr %16, align 8
  %18 = load i64, ptr %3, align 8
  %19 = getelementptr inbounds nuw i8, ptr %4, i64 8
  %20 = load i32, ptr %5, align 4
  %21 = icmp eq i32 %20, 2
  %22 = getelementptr inbounds nuw i8, ptr %0, i64 16
  %23 = load i64, ptr %22, align 8
  br i1 %21, label %24, label %29

24:                                               ; preds = %12
  %25 = add nsw i64 %23, %18
  %26 = getelementptr inbounds nuw i8, ptr %0, i64 24
  %27 = load i64, ptr %26, align 8
  %28 = add nsw i64 %27, %17
  br label %32

29:                                               ; preds = %12
  %30 = getelementptr inbounds nuw i8, ptr %0, i64 24
  %31 = load i64, ptr %30, align 8
  br label %32

32:                                               ; preds = %29, %24
  %.sink = phi i64 [ %25, %24 ], [ %23, %29 ]
  %storemerge = phi i64 [ %28, %24 ], [ %31, %29 ]
  store i64 %.sink, ptr %3, align 8
  store i64 %storemerge, ptr %16, align 8
  %33 = sub nsw i64 %.sink, %17
  store i64 %33, ptr %4, align 8
  %34 = add nsw i64 %storemerge, %18
  store i64 %34, ptr %19, align 8
  %35 = call fastcc i32 @ft_stroke_border_lineto(ptr noundef %15, ptr noundef %4, i8 noundef zeroext 0)
  %.not = icmp eq i32 %35, 0
  br i1 %.not, label %36, label %42

36:                                               ; preds = %32
  %37 = load i64, ptr %3, align 8
  %factor = shl i64 %37, 1
  %38 = sub i64 %factor, %33
  store i64 %38, ptr %4, align 8
  %39 = load i64, ptr %16, align 8
  %factor24 = shl i64 %39, 1
  %40 = sub i64 %factor24, %34
  store i64 %40, ptr %19, align 8
  %41 = call fastcc i32 @ft_stroke_border_lineto(ptr noundef %15, ptr noundef %4, i8 noundef zeroext 0)
  br label %42

42:                                               ; preds = %8, %36, %32
  %.0 = phi i32 [ %11, %8 ], [ %35, %32 ], [ %41, %36 ]
  ret i32 %.0
}